; Function Attrs: nounwind uwtable
define ptr @Cgt_ManConstructCare_rec(ptr noundef %0, ptr noundef captures(none) %1, ptr noundef %2) local_unnamed_addr #0 {
  %4 = getelementptr i8, ptr %0, i64 312
  %.val = load i32, ptr %4, align 8, !tbaa !3
  %5 = getelementptr i8, ptr %1, i64 32
  %.val29 = load i32, ptr %5, align 8, !tbaa !21
  %.not = icmp eq i32 %.val29, %.val
  br i1 %.not, label %6, label %9

6:                                                ; preds = %3
  %7 = getelementptr inbounds nuw i8, ptr %1, i64 40
  %8 = load ptr, ptr %7, align 8, !tbaa !51
  br label %45

9:                                                ; preds = %3
  store i32 %.val, ptr %5, align 8, !tbaa !21
  %10 = getelementptr i8, ptr %1, i64 24
  %.val33 = load i64, ptr %10, align 8
  %11 = and i64 %.val33, 7
  %.not36 = icmp eq i64 %11, 2
  br i1 %.not36, label %12, label %14

12:                                               ; preds = %9
  %13 = getelementptr inbounds nuw i8, ptr %1, i64 40
  store ptr null, ptr %13, align 8, !tbaa !51
  br label %45

14:                                               ; preds = %9
  %15 = getelementptr i8, ptr %1, i64 8
  %.val31 = load ptr, ptr %15, align 8, !tbaa !22
  %16 = ptrtoint ptr %.val31 to i64
  %17 = and i64 %16, -2
  %18 = inttoptr i64 %17 to ptr
  %19 = tail call ptr @Cgt_ManConstructCare_rec(ptr noundef nonnull %0, ptr noundef %18, ptr noundef %2)
  %20 = icmp eq ptr %19, null
  br i1 %20, label %21, label %23

21:                                               ; preds = %14
  %22 = getelementptr inbounds nuw i8, ptr %1, i64 40
  store ptr null, ptr %22, align 8, !tbaa !51
  br label %45

23:                                               ; preds = %14
  %24 = getelementptr i8, ptr %1, i64 16
  %.val32 = load ptr, ptr %24, align 8, !tbaa !23
  %25 = ptrtoint ptr %.val32 to i64
  %26 = and i64 %25, -2
  %27 = inttoptr i64 %26 to ptr
  %28 = tail call ptr @Cgt_ManConstructCare_rec(ptr noundef nonnull %0, ptr noundef %27, ptr noundef %2)
  %29 = icmp eq ptr %28, null
  br i1 %29, label %30, label %32

30:                                               ; preds = %23
  %31 = getelementptr inbounds nuw i8, ptr %1, i64 40
  store ptr null, ptr %31, align 8, !tbaa !51
  br label %45

32:                                               ; preds = %23
  %.val34 = load ptr, ptr %15, align 8, !tbaa !22
  %33 = ptrtoint ptr %.val34 to i64
  %34 = and i64 %33, 1
  %35 = ptrtoint ptr %19 to i64
  %36 = xor i64 %34, %35
  %37 = inttoptr i64 %36 to ptr
  %.val35 = load ptr, ptr %24, align 8, !tbaa !23
  %38 = ptrtoint ptr %.val35 to i64
  %39 = and i64 %38, 1
  %40 = ptrtoint ptr %28 to i64
  %41 = xor i64 %39, %40
  %42 = inttoptr i64 %41 to ptr
  %43 = tail call ptr @Aig_And(ptr noundef %2, ptr noundef %37, ptr noundef %42) #13
  %44 = getelementptr inbounds nuw i8, ptr %1, i64 40
  store ptr %43, ptr %44, align 8, !tbaa !51
  br label %45

45:                                               ; preds = %32, %30, %21, %12, %6
  %.0 = phi ptr [ %8, %6 ], [ null, %12 ], [ null, %21 ], [ null, %30 ], [ %43, %32 ]
  ret ptr %.0
}